(lp0
S'poi'
p1
aS'salary'
p2
aS'bonus'
p3
aS'bonus_salary_ratio'
p4
aS'exercised_stock_options'
p5
aS'from_poi_to_this_person_ratio'
p6
aS'from_this_person_to_poi_ratio'
p7
aS'shared_receipt_with_poi'
p8
aS'total_stock_value'
p9
a.